target datalayout = "e-m:e-p270:32:32-p271:32:32-p272:64:64-i64:64-i128:128-f80:128-n8:16:32:64-S128"
target triple = "x86_64-pc-linux-gnu"

@global_iec60870_link_addr_len = internal global i32 1, align 4

; Function Attrs: null_pointer_is_valid sspstrong uwtable
define internal i32 @get_iec101_len(ptr noundef %0, ptr noundef %1, i32 noundef %2, ptr noundef %3) #0 {
  %5 = alloca i32, align 4
  %6 = alloca ptr, align 8
  %7 = alloca ptr, align 8
  %8 = alloca i32, align 4
  %9 = alloca ptr, align 8
  %10 = alloca i32, align 4
  %11 = alloca i32, align 4
  %12 = alloca i32, align 4
  store ptr %0, ptr %6, align 8
  store ptr %1, ptr %7, align 8
  store i32 %2, ptr %8, align 4
  store ptr %3, ptr %9, align 8
  call void @llvm.lifetime.start.p0(i64 4, ptr %10) #8
  store i32 0, ptr %10, align 4
  call void @llvm.lifetime.start.p0(i64 4, ptr %11) #8
  %13 = load ptr, ptr %7, align 8
  %14 = load i32, ptr %8, align 4
  %15 = call zeroext i8 @tvb_get_uint8(ptr noundef %13, i32 noundef %14)
  %16 = zext i8 %15 to i32
  store i32 %16, ptr %11, align 4
  %17 = load i32, ptr %11, align 4
  switch i32 %17, label %59 [
    i32 229, label %18
    i32 16, label %19
    i32 104, label %22
  ]

18:                                               ; preds = %4
  store i32 1, ptr %10, align 4
  br label %59

19:                                               ; preds = %4
  %20 = load i32, ptr @global_iec60870_link_addr_len, align 4
  %21 = add i32 %20, 4
  store i32 %21, ptr %10, align 4
  br label %59

22:                                               ; preds = %4
  %23 = load ptr, ptr %7, align 8
  %24 = load i32, ptr %8, align 4
  %25 = call i32 @tvb_captured_length_remaining(ptr noundef %23, i32 noundef %24)
  %26 = icmp slt i32 %25, 3
  br i1 %26, label %27, label %28

27:                                               ; preds = %22
  store i32 0, ptr %5, align 4
  store i32 1, ptr %12, align 4
  br label %61

28:                                               ; preds = %22
  %29 = load ptr, ptr %7, align 8
  %30 = load i32, ptr %8, align 4
  %31 = add i32 %30, 1
  %32 = call zeroext i8 @tvb_get_uint8(ptr noundef %29, i32 noundef %31)
  %33 = zext i8 %32 to i32
  %34 = add i32 %33, 6
  store i32 %34, ptr %10, align 4
  %35 = load i32, ptr %10, align 4
  %36 = load ptr, ptr %7, align 8
  %37 = load i32, ptr %8, align 4
  %38 = add i32 %37, 2
  %39 = call zeroext i8 @tvb_get_uint8(ptr noundef %36, i32 noundef %38)
  %40 = zext i8 %39 to i32
  %41 = add i32 %40, 6
  %42 = icmp ne i32 %35, %41
  br i1 %42, label %43, label %47

43:                                               ; preds = %28
  %44 = load ptr, ptr %7, align 8
  %45 = load i32, ptr %8, align 4
  %46 = call i32 @tvb_reported_length_remaining(ptr noundef %44, i32 noundef %45)
  store i32 %46, ptr %10, align 4
  br label %47

47:                                               ; preds = %43, %28
  %48 = load ptr, ptr %7, align 8
  %49 = load i32, ptr %8, align 4
  %50 = add i32 %49, 3
  %51 = call zeroext i8 @tvb_get_uint8(ptr noundef %48, i32 noundef %50)
  %52 = zext i8 %51 to i32
  %53 = icmp ne i32 %52, 104
  br i1 %53, label %54, label %58

54:                                               ; preds = %47
  %55 = load ptr, ptr %7, align 8
  %56 = load i32, ptr %8, align 4
  %57 = call i32 @tvb_reported_length_remaining(ptr noundef %55, i32 noundef %56)
  store i32 %57, ptr %10, align 4
  br label %58

58:                                               ; preds = %54, %47
  br label %59

59:                                               ; preds = %4, %58, %19, %18
  %60 = load i32, ptr %10, align 4
  store i32 %60, ptr %5, align 4
  store i32 1, ptr %12, align 4
  br label %61

61:                                               ; preds = %59, %27
  call void @llvm.lifetime.end.p0(i64 4, ptr %11) #8
  call void @llvm.lifetime.end.p0(i64 4, ptr %10) #8
  %62 = load i32, ptr %5, align 4
  ret i32 %62
}