; Function Attrs: null_pointer_is_valid sspstrong uwtable
define internal i32 @get_iec101_len(ptr readnone captures(none) %0, ptr noundef %1, i32 noundef %2, ptr readnone captures(none) %3) #0 {
  %5 = tail call zeroext i8 @tvb_get_uint8(ptr noundef %1, i32 noundef %2)
  switch i8 %5, label %27 [
    i8 -27, label %6
    i8 16, label %7
    i8 104, label %10
  ]

6:                                                ; preds = %4
  br label %27

7:                                                ; preds = %4
  %8 = load i32, ptr @global_iec60870_link_addr_len, align 4
  %9 = add i32 %8, 4
  br label %27

10:                                               ; preds = %4
  %11 = tail call i32 @tvb_captured_length_remaining(ptr noundef %1, i32 noundef %2)
  %12 = icmp slt i32 %11, 3
  br i1 %12, label %27, label %13

13:                                               ; preds = %10
  %14 = add i32 %2, 1
  %15 = tail call zeroext i8 @tvb_get_uint8(ptr noundef %1, i32 noundef %14)
  %16 = zext i8 %15 to i32
  %17 = add nuw nsw i32 %16, 6
  %18 = add i32 %2, 2
  %19 = tail call zeroext i8 @tvb_get_uint8(ptr noundef %1, i32 noundef %18)
  %.not = icmp eq i8 %15, %19
  br i1 %.not, label %22, label %20

20:                                               ; preds = %13
  %21 = tail call i32 @tvb_reported_length_remaining(ptr noundef %1, i32 noundef %2)
  br label %22

22:                                               ; preds = %20, %13
  %.1 = phi i32 [ %21, %20 ], [ %17, %13 ]
  %23 = add i32 %2, 3
  %24 = tail call zeroext i8 @tvb_get_uint8(ptr noundef %1, i32 noundef %23)
  %.not19 = icmp eq i8 %24, 104
  br i1 %.not19, label %27, label %25

25:                                               ; preds = %22
  %26 = tail call i32 @tvb_reported_length_remaining(ptr noundef %1, i32 noundef %2)
  br label %27

27:                                               ; preds = %4, %6, %7, %25, %22, %10
  %.0 = phi i32 [ 0, %10 ], [ 0, %4 ], [ %26, %25 ], [ %.1, %22 ], [ %9, %7 ], [ 1, %6 ]
  ret i32 %.0
}